; ModuleID = '24/2512.c'
source_filename = "24/2512.c"
target datalayout = "e-m:e-p270:32:32-p271:32:32-p272:64:64-i64:64-f80:128-n8:16:32:64-S128"
target triple = "x86_64-pc-linux-gnu"

@.str = private unnamed_addr constant [6 x i8] c"%s\0A%s\00", align 1

; Function Attrs: noinline nounwind uwtable
define dso_local i32 @main() #0 {
  %1 = alloca i32, align 4
  %2 = alloca [1000 x i8], align 16
  %3 = alloca [200 x [50 x i8]], align 16
  %4 = alloca i32, align 4
  %5 = alloca i32, align 4
  %6 = alloca i32, align 4
  %7 = alloca i32, align 4
  %8 = alloca i32, align 4
  %9 = alloca i32, align 4
  %10 = alloca i32, align 4
  %11 = alloca i32, align 4
  store i32 0, i32* %1, align 4
  %12 = bitcast [1000 x i8]* %2 to i8*
  call void @llvm.memset.p0i8.i64(i8* align 16 %12, i8 0, i64 1000, i1 false)
  %13 = getelementptr inbounds [1000 x i8], [1000 x i8]* %2, i64 0, i64 0
  %14 = call i32 (i8*, ...) bitcast (i32 (...)* @gets to i32 (i8*, ...)*)(i8* %13)
  store i32 0, i32* %4, align 4
  store i32 0, i32* %5, align 4
  store i32 0, i32* %6, align 4
  store i32 0, i32* %7, align 4
  store i32 100, i32* %8, align 4
  %15 = getelementptr inbounds [1000 x i8], [1000 x i8]* %2, i64 0, i64 0
  %16 = call i64 @strlen(i8* %15) #4
  %17 = trunc i64 %16 to i32
  store i32 %17, i32* %11, align 4
  store i32 0, i32* %6, align 4
  br label %18

18:                                               ; preds = %80, %0
  %19 = load i32, i32* %6, align 4
  %20 = load i32, i32* %11, align 4
  %21 = icmp slt i32 %19, %20
  br i1 %21, label %22, label %83

22:                                               ; preds = %18
  br label %23

23:                                               ; preds = %46, %22
  %24 = load i32, i32* %6, align 4
  %25 = sext i32 %24 to i64
  %26 = getelementptr inbounds [1000 x i8], [1000 x i8]* %2, i64 0, i64 %25
  %27 = load i8, i8* %26, align 1
  %28 = sext i8 %27 to i32
  %29 = icmp ne i32 %28, 32
  br i1 %29, label %30, label %44

30:                                               ; preds = %23
  %31 = load i32, i32* %6, align 4
  %32 = sext i32 %31 to i64
  %33 = getelementptr inbounds [1000 x i8], [1000 x i8]* %2, i64 0, i64 %32
  %34 = load i8, i8* %33, align 1
  %35 = sext i8 %34 to i32
  %36 = icmp ne i32 %35, 44
  br i1 %36, label %37, label %44

37:                                               ; preds = %30
  %38 = load i32, i32* %6, align 4
  %39 = sext i32 %38 to i64
  %40 = getelementptr inbounds [1000 x i8], [1000 x i8]* %2, i64 0, i64 %39
  %41 = load i8, i8* %40, align 1
  %42 = sext i8 %41 to i32
  %43 = icmp ne i32 %42, 0
  br label %44

44:                                               ; preds = %37, %30, %23
  %45 = phi i1 [ false, %30 ], [ false, %23 ], [ %43, %37 ]
  br i1 %45, label %46, label %59

46:                                               ; preds = %44
  %47 = load i32, i32* %6, align 4
  %48 = add nsw i32 %47, 1
  store i32 %48, i32* %6, align 4
  %49 = sext i32 %47 to i64
  %50 = getelementptr inbounds [1000 x i8], [1000 x i8]* %2, i64 0, i64 %49
  %51 = load i8, i8* %50, align 1
  %52 = load i32, i32* %5, align 4
  %53 = sext i32 %52 to i64
  %54 = getelementptr inbounds [200 x [50 x i8]], [200 x [50 x i8]]* %3, i64 0, i64 %53
  %55 = load i32, i32* %4, align 4
  %56 = add nsw i32 %55, 1
  store i32 %56, i32* %4, align 4
  %57 = sext i32 %55 to i64
  %58 = getelementptr inbounds [50 x i8], [50 x i8]* %54, i64 0, i64 %57
  store i8 %51, i8* %58, align 1
  br label %23

59:                                               ; preds = %44
  %60 = load i32, i32* %4, align 4
  %61 = icmp ne i32 %60, 0
  br i1 %61, label %62, label %79

62:                                               ; preds = %59
  %63 = load i32, i32* %4, align 4
  %64 = load i32, i32* %7, align 4
  %65 = icmp sgt i32 %63, %64
  br i1 %65, label %66, label %69

66:                                               ; preds = %62
  %67 = load i32, i32* %4, align 4
  store i32 %67, i32* %7, align 4
  %68 = load i32, i32* %5, align 4
  store i32 %68, i32* %9, align 4
  br label %69

69:                                               ; preds = %66, %62
  %70 = load i32, i32* %4, align 4
  %71 = load i32, i32* %8, align 4
  %72 = icmp slt i32 %70, %71
  br i1 %72, label %73, label %76

73:                                               ; preds = %69
  %74 = load i32, i32* %4, align 4
  store i32 %74, i32* %8, align 4
  %75 = load i32, i32* %5, align 4
  store i32 %75, i32* %10, align 4
  br label %76

76:                                               ; preds = %73, %69
  store i32 0, i32* %4, align 4
  %77 = load i32, i32* %5, align 4
  %78 = add nsw i32 %77, 1
  store i32 %78, i32* %5, align 4
  br label %79

79:                                               ; preds = %76, %59
  br label %80

80:                                               ; preds = %79
  %81 = load i32, i32* %6, align 4
  %82 = add nsw i32 %81, 1
  store i32 %82, i32* %6, align 4
  br label %18

83:                                               ; preds = %18
  %84 = load i32, i32* %9, align 4
  %85 = sext i32 %84 to i64
  %86 = getelementptr inbounds [200 x [50 x i8]], [200 x [50 x i8]]* %3, i64 0, i64 %85
  %87 = getelementptr inbounds [50 x i8], [50 x i8]* %86, i64 0, i64 0
  %88 = load i32, i32* %10, align 4
  %89 = sext i32 %88 to i64
  %90 = getelementptr inbounds [200 x [50 x i8]], [200 x [50 x i8]]* %3, i64 0, i64 %89
  %91 = getelementptr inbounds [50 x i8], [50 x i8]* %90, i64 0, i64 0
  %92 = call i32 (i8*, ...) @printf(i8* getelementptr inbounds ([6 x i8], [6 x i8]* @.str, i64 0, i64 0), i8* %87, i8* %91)
  ret i32 0
}

; Function Attrs: argmemonly nounwind willreturn
declare void @llvm.memset.p0i8.i64(i8* nocapture writeonly, i8, i64, i1 immarg) #1

declare dso_local i32 @gets(...) #2

; Function Attrs: nounwind readonly
declare dso_local i64 @strlen(i8*) #3

declare dso_local i32 @printf(i8*, ...) #2


!llvm.module.flags = !{!0}
!llvm.ident = !{!1}

!0 = !{i32 1, !"wchar_size", i32 4}
!1 = !{!"clang version 10.0.0-4ubuntu1 "}
